; ModuleID = 'source-C-CXX/3/357.c'
source_filename = "source-C-CXX/3/357.c"
target datalayout = "e-m:e-p270:32:32-p271:32:32-p272:64:64-i64:64-f80:128-n8:16:32:64-S128"
target triple = "x86_64-pc-linux-gnu"

@.str = private unnamed_addr constant [6 x i8] c"%d %d\00", align 1
@.str.1 = private unnamed_addr constant [3 x i8] c"%d\00", align 1
@.str.2 = private unnamed_addr constant [4 x i8] c"%d\0A\00", align 1

; Function Attrs: nofree nounwind sspstrong uwtable
define dso_local i32 @main() local_unnamed_addr #0 {
  %1 = alloca i32, align 4
  %2 = alloca i32, align 4
  %3 = alloca [100 x [100 x i32]], align 16
  %4 = bitcast i32* %1 to i8*
  call void @llvm.lifetime.start.p0i8(i64 4, i8* nonnull %4) #3
  %5 = bitcast i32* %2 to i8*
  call void @llvm.lifetime.start.p0i8(i64 4, i8* nonnull %5) #3
  %6 = bitcast [100 x [100 x i32]]* %3 to i8*
  call void @llvm.lifetime.start.p0i8(i64 40000, i8* nonnull %6) #3
  %7 = call i32 (i8*, ...) @__isoc99_scanf(i8* getelementptr inbounds ([6 x i8], [6 x i8]* @.str, i64 0, i64 0), i32* nonnull %1, i32* nonnull %2)
  %8 = load i32, i32* %1, align 4, !tbaa !5
  %9 = icmp sgt i32 %8, 0
  %10 = load i32, i32* %2, align 4, !tbaa !5
  br i1 %9, label %11, label %18

11:                                               ; preds = %0
  %12 = icmp sgt i32 %10, 0
  br i1 %12, label %13, label %44

13:                                               ; preds = %11, %32
  %14 = phi i32 [ %33, %32 ], [ %8, %11 ]
  %15 = phi i32 [ %34, %32 ], [ %10, %11 ]
  %16 = phi i64 [ %35, %32 ], [ 0, %11 ]
  %17 = icmp sgt i32 %15, 0
  br i1 %17, label %22, label %32

18:                                               ; preds = %32, %0
  %19 = phi i32 [ %8, %0 ], [ %33, %32 ]
  %20 = phi i32 [ %10, %0 ], [ %34, %32 ]
  %21 = icmp sgt i32 %20, 0
  br i1 %21, label %38, label %44

22:                                               ; preds = %13, %22
  %23 = phi i64 [ %26, %22 ], [ 0, %13 ]
  %24 = getelementptr inbounds [100 x [100 x i32]], [100 x [100 x i32]]* %3, i64 0, i64 %16, i64 %23
  %25 = call i32 (i8*, ...) @__isoc99_scanf(i8* getelementptr inbounds ([3 x i8], [3 x i8]* @.str.1, i64 0, i64 0), i32* nonnull %24)
  %26 = add nuw nsw i64 %23, 1
  %27 = load i32, i32* %2, align 4, !tbaa !5
  %28 = sext i32 %27 to i64
  %29 = icmp slt i64 %26, %28
  br i1 %29, label %22, label %30, !llvm.loop !9

30:                                               ; preds = %22
  %31 = load i32, i32* %1, align 4, !tbaa !5
  br label %32

32:                                               ; preds = %30, %13
  %33 = phi i32 [ %31, %30 ], [ %14, %13 ]
  %34 = phi i32 [ %27, %30 ], [ %15, %13 ]
  %35 = add nuw nsw i64 %16, 1
  %36 = sext i32 %33 to i64
  %37 = icmp slt i64 %35, %36
  br i1 %37, label %13, label %18, !llvm.loop !11

38:                                               ; preds = %18, %64
  %39 = phi i64 [ %69, %64 ], [ 1, %18 ]
  %40 = phi i64 [ %68, %64 ], [ 0, %18 ]
  %41 = phi i32 [ %66, %64 ], [ 0, %18 ]
  br label %50

42:                                               ; preds = %64
  %43 = load i32, i32* %1, align 4, !tbaa !5
  br label %44

44:                                               ; preds = %11, %42, %18
  %45 = phi i32 [ %19, %18 ], [ %43, %42 ], [ %8, %11 ]
  %46 = phi i32 [ %20, %18 ], [ %65, %42 ], [ %10, %11 ]
  %47 = add i32 %45, -2
  %48 = add i32 %47, %46
  %49 = icmp sgt i32 %46, %48
  br i1 %49, label %110, label %70

50:                                               ; preds = %38, %60
  %51 = phi i64 [ 0, %38 ], [ %61, %60 ]
  %52 = phi i64 [ %40, %38 ], [ %62, %60 ]
  %53 = load i32, i32* %1, align 4, !tbaa !5
  %54 = sext i32 %53 to i64
  %55 = icmp slt i64 %51, %54
  br i1 %55, label %56, label %60

56:                                               ; preds = %50
  %57 = getelementptr inbounds [100 x [100 x i32]], [100 x [100 x i32]]* %3, i64 0, i64 %51, i64 %52
  %58 = load i32, i32* %57, align 4, !tbaa !5
  %59 = call i32 (i8*, ...) @printf(i8* nonnull dereferenceable(1) getelementptr inbounds ([4 x i8], [4 x i8]* @.str.2, i64 0, i64 0), i32 %58)
  br label %60

60:                                               ; preds = %56, %50
  %61 = add nuw nsw i64 %51, 1
  %62 = add nsw i64 %52, -1
  %63 = icmp eq i64 %61, %39
  br i1 %63, label %64, label %50, !llvm.loop !13

64:                                               ; preds = %60
  %65 = load i32, i32* %2, align 4, !tbaa !5
  %66 = add nuw nsw i32 %41, 1
  %67 = icmp slt i32 %66, %65
  %68 = add nuw nsw i64 %40, 1
  %69 = add nuw nsw i64 %39, 1
  br i1 %67, label %38, label %42, !llvm.loop !14

70:                                               ; preds = %44, %103
  %71 = phi i32 [ %104, %103 ], [ %46, %44 ]
  %72 = phi i32 [ %105, %103 ], [ %45, %44 ]
  %73 = phi i32 [ %75, %103 ], [ %46, %44 ]
  %74 = phi i32 [ %106, %103 ], [ %46, %44 ]
  %75 = add i32 %73, 1
  %76 = sub nsw i32 %74, %71
  %77 = add nsw i32 %76, 1
  %78 = icmp slt i32 %77, %72
  br i1 %78, label %79, label %103

79:                                               ; preds = %70
  %80 = sub i32 %75, %71
  %81 = sext i32 %80 to i64
  br label %82

82:                                               ; preds = %79, %95
  %83 = phi i32 [ %72, %79 ], [ %96, %95 ]
  %84 = phi i32 [ %72, %79 ], [ %97, %95 ]
  %85 = phi i64 [ %81, %79 ], [ %98, %95 ]
  %86 = phi i32 [ %71, %79 ], [ %87, %95 ]
  %87 = add nsw i32 %86, -1
  %88 = icmp sgt i32 %86, 0
  br i1 %88, label %89, label %95

89:                                               ; preds = %82
  %90 = zext i32 %87 to i64
  %91 = getelementptr inbounds [100 x [100 x i32]], [100 x [100 x i32]]* %3, i64 0, i64 %85, i64 %90
  %92 = load i32, i32* %91, align 4, !tbaa !5
  %93 = call i32 (i8*, ...) @printf(i8* nonnull dereferenceable(1) getelementptr inbounds ([4 x i8], [4 x i8]* @.str.2, i64 0, i64 0), i32 %92)
  %94 = load i32, i32* %1, align 4, !tbaa !5
  br label %95

95:                                               ; preds = %89, %82
  %96 = phi i32 [ %94, %89 ], [ %83, %82 ]
  %97 = phi i32 [ %94, %89 ], [ %84, %82 ]
  %98 = add nsw i64 %85, 1
  %99 = sext i32 %97 to i64
  %100 = icmp slt i64 %98, %99
  br i1 %100, label %82, label %101, !llvm.loop !15

101:                                              ; preds = %95
  %102 = load i32, i32* %2, align 4, !tbaa !5
  br label %103

103:                                              ; preds = %101, %70
  %104 = phi i32 [ %102, %101 ], [ %71, %70 ]
  %105 = phi i32 [ %96, %101 ], [ %72, %70 ]
  %106 = add nsw i32 %74, 1
  %107 = add i32 %105, -2
  %108 = add i32 %107, %104
  %109 = icmp slt i32 %74, %108
  br i1 %109, label %70, label %110, !llvm.loop !16

110:                                              ; preds = %103, %44
  call void @llvm.lifetime.end.p0i8(i64 40000, i8* nonnull %6) #3
  call void @llvm.lifetime.end.p0i8(i64 4, i8* nonnull %5) #3
  call void @llvm.lifetime.end.p0i8(i64 4, i8* nonnull %4) #3
  ret i32 0
}

; Function Attrs: argmemonly mustprogress nofree nosync nounwind willreturn
declare void @llvm.lifetime.start.p0i8(i64 immarg, i8* nocapture) #1

; Function Attrs: nofree nounwind
declare noundef i32 @__isoc99_scanf(i8* nocapture noundef readonly, ...) local_unnamed_addr #2

; Function Attrs: nofree nounwind
declare noundef i32 @printf(i8* nocapture noundef readonly, ...) local_unnamed_addr #2

; Function Attrs: argmemonly mustprogress nofree nosync nounwind willreturn
declare void @llvm.lifetime.end.p0i8(i64 immarg, i8* nocapture) #1


!llvm.module.flags = !{!0, !1, !2, !3}
!llvm.ident = !{!4}

!0 = !{i32 1, !"wchar_size", i32 4}
!1 = !{i32 7, !"PIC Level", i32 2}
!2 = !{i32 7, !"PIE Level", i32 2}
!3 = !{i32 7, !"uwtable", i32 1}
!4 = !{!"clang version 13.0.0"}
!5 = !{!6, !6, i64 0}
!6 = !{!"int", !7, i64 0}
!7 = !{!"omnipotent char", !8, i64 0}
!8 = !{!"Simple C/C++ TBAA"}
!9 = distinct !{!9, !10}
!10 = !{!"llvm.loop.mustprogress"}
!11 = distinct !{!11, !10, !12}
!12 = !{!"llvm.loop.unswitch.partial.disable"}
!13 = distinct !{!13, !10}
!14 = distinct !{!14, !10}
!15 = distinct !{!15, !10}
!16 = distinct !{!16, !10}
